; ModuleID = '62/878.c'
source_filename = "62/878.c"
target datalayout = "e-m:e-p270:32:32-p271:32:32-p272:64:64-i64:64-f80:128-n8:16:32:64-S128"
target triple = "x86_64-pc-linux-gnu"

; Function Attrs: noinline nounwind uwtable
define dso_local i32 @main() #0 {
  %1 = alloca i32, align 4
  %2 = alloca [500 x i8], align 16
  %3 = alloca i32, align 4
  %4 = alloca i32, align 4
  %5 = alloca i32, align 4
  store i32 0, i32* %1, align 4
  %6 = getelementptr inbounds [500 x i8], [500 x i8]* %2, i64 0, i64 0
  %7 = call i32 (i8*, ...) bitcast (i32 (...)* @gets to i32 (i8*, ...)*)(i8* %6)
  %8 = getelementptr inbounds [500 x i8], [500 x i8]* %2, i64 0, i64 0
  %9 = call i64 @strlen(i8* %8) #3
  %10 = trunc i64 %9 to i32
  store i32 %10, i32* %5, align 4
  store i32 0, i32* %3, align 4
  br label %11

11:                                               ; preds = %62, %0
  %12 = load i32, i32* %3, align 4
  %13 = load i32, i32* %5, align 4
  %14 = sub nsw i32 %13, 1
  %15 = icmp slt i32 %12, %14
  br i1 %15, label %16, label %65

16:                                               ; preds = %11
  %17 = load i32, i32* %3, align 4
  %18 = sext i32 %17 to i64
  %19 = getelementptr inbounds [500 x i8], [500 x i8]* %2, i64 0, i64 %18
  %20 = load i8, i8* %19, align 1
  %21 = sext i8 %20 to i32
  %22 = icmp eq i32 %21, 32
  br i1 %22, label %23, label %58

23:                                               ; preds = %16
  %24 = load i32, i32* %3, align 4
  %25 = add nsw i32 %24, 1
  %26 = sext i32 %25 to i64
  %27 = getelementptr inbounds [500 x i8], [500 x i8]* %2, i64 0, i64 %26
  %28 = load i8, i8* %27, align 1
  %29 = sext i8 %28 to i32
  %30 = icmp eq i32 %29, 32
  br i1 %30, label %31, label %58

31:                                               ; preds = %23
  %32 = load i32, i32* %3, align 4
  %33 = add nsw i32 %32, 1
  store i32 %33, i32* %4, align 4
  br label %34

34:                                               ; preds = %48, %31
  %35 = load i32, i32* %4, align 4
  %36 = load i32, i32* %5, align 4
  %37 = sub nsw i32 %36, 1
  %38 = icmp slt i32 %35, %37
  br i1 %38, label %39, label %51

39:                                               ; preds = %34
  %40 = load i32, i32* %4, align 4
  %41 = add nsw i32 %40, 1
  %42 = sext i32 %41 to i64
  %43 = getelementptr inbounds [500 x i8], [500 x i8]* %2, i64 0, i64 %42
  %44 = load i8, i8* %43, align 1
  %45 = load i32, i32* %4, align 4
  %46 = sext i32 %45 to i64
  %47 = getelementptr inbounds [500 x i8], [500 x i8]* %2, i64 0, i64 %46
  store i8 %44, i8* %47, align 1
  br label %48

48:                                               ; preds = %39
  %49 = load i32, i32* %4, align 4
  %50 = add nsw i32 %49, 1
  store i32 %50, i32* %4, align 4
  br label %34

51:                                               ; preds = %34
  %52 = load i32, i32* %3, align 4
  %53 = sub nsw i32 %52, 1
  store i32 %53, i32* %3, align 4
  %54 = load i32, i32* %5, align 4
  %55 = sub nsw i32 %54, 1
  %56 = sext i32 %55 to i64
  %57 = getelementptr inbounds [500 x i8], [500 x i8]* %2, i64 0, i64 %56
  store i8 0, i8* %57, align 1
  br label %58

58:                                               ; preds = %51, %23, %16
  %59 = getelementptr inbounds [500 x i8], [500 x i8]* %2, i64 0, i64 0
  %60 = call i64 @strlen(i8* %59) #3
  %61 = trunc i64 %60 to i32
  store i32 %61, i32* %5, align 4
  br label %62

62:                                               ; preds = %58
  %63 = load i32, i32* %3, align 4
  %64 = add nsw i32 %63, 1
  store i32 %64, i32* %3, align 4
  br label %11

65:                                               ; preds = %11
  %66 = getelementptr inbounds [500 x i8], [500 x i8]* %2, i64 0, i64 0
  %67 = call i32 @puts(i8* %66)
  ret i32 0
}

declare dso_local i32 @gets(...) #1

; Function Attrs: nounwind readonly
declare dso_local i64 @strlen(i8*) #2

declare dso_local i32 @puts(i8*) #1


!llvm.module.flags = !{!0}
!llvm.ident = !{!1}

!0 = !{i32 1, !"wchar_size", i32 4}
!1 = !{!"clang version 10.0.0-4ubuntu1 "}
